target datalayout = "e-m:e-p270:32:32-p271:32:32-p272:64:64-i64:64-i128:128-f80:128-n8:16:32:64-S128"
target triple = "x86_64-pc-linux-gnu"

%struct._FUserData = type { ptr, ptr, ptr, ptr, ptr, ptr, ptr, ptr, ptr }

@.str.1 = private unnamed_addr constant [37 x i8] c"Error in IpStdFInterface eval_hess!\0A\00", align 1

; Function Attrs: nounwind uwtable
define internal zeroext i1 @eval_h(i32 noundef %0, ptr noundef %1, i1 noundef zeroext %2, double noundef %3, i32 noundef %4, ptr noundef %5, i1 noundef zeroext %6, i32 noundef %7, ptr noundef %8, ptr noundef %9, ptr noundef %10, ptr noundef %11) #0 {
  %13 = alloca i1, align 1
  %14 = alloca i32, align 4
  %15 = alloca ptr, align 8
  %16 = alloca i8, align 1
  %17 = alloca double, align 8
  %18 = alloca i32, align 4
  %19 = alloca ptr, align 8
  %20 = alloca i8, align 1
  %21 = alloca i32, align 4
  %22 = alloca ptr, align 8
  %23 = alloca ptr, align 8
  %24 = alloca ptr, align 8
  %25 = alloca ptr, align 8
  %26 = alloca i32, align 4
  %27 = alloca i32, align 4
  %28 = alloca i32, align 4
  %29 = alloca i32, align 4
  %30 = alloca i32, align 4
  %31 = alloca i32, align 4
  %32 = alloca ptr, align 8
  %33 = alloca ptr, align 8
  %34 = alloca ptr, align 8
  %35 = alloca i32, align 4
  %36 = alloca i32, align 4
  store i32 %0, ptr %14, align 4, !tbaa !11
  store ptr %1, ptr %15, align 8, !tbaa !8
  %37 = zext i1 %2 to i8
  store i8 %37, ptr %16, align 1, !tbaa !24
  store double %3, ptr %17, align 8, !tbaa !30
  store i32 %4, ptr %18, align 4, !tbaa !11
  store ptr %5, ptr %19, align 8, !tbaa !8
  %38 = zext i1 %6 to i8
  store i8 %38, ptr %20, align 1, !tbaa !24
  store i32 %7, ptr %21, align 4, !tbaa !11
  store ptr %8, ptr %22, align 8, !tbaa !3
  store ptr %9, ptr %23, align 8, !tbaa !3
  store ptr %10, ptr %24, align 8, !tbaa !8
  store ptr %11, ptr %25, align 8, !tbaa !10
  call void @llvm.lifetime.start.p0(i64 4, ptr %26) #6
  %39 = load i32, ptr %14, align 4, !tbaa !11
  store i32 %39, ptr %26, align 4, !tbaa !11
  call void @llvm.lifetime.start.p0(i64 4, ptr %27) #6
  %40 = load i8, ptr %16, align 1, !tbaa !24, !range !26, !noundef !27
  %41 = trunc i8 %40 to i1
  %42 = zext i1 %41 to i32
  store i32 %42, ptr %27, align 4, !tbaa !11
  call void @llvm.lifetime.start.p0(i64 4, ptr %28) #6
  %43 = load i32, ptr %18, align 4, !tbaa !11
  store i32 %43, ptr %28, align 4, !tbaa !11
  call void @llvm.lifetime.start.p0(i64 4, ptr %29) #6
  %44 = load i8, ptr %20, align 1, !tbaa !24, !range !26, !noundef !27
  %45 = trunc i8 %44 to i1
  %46 = zext i1 %45 to i32
  store i32 %46, ptr %29, align 4, !tbaa !11
  call void @llvm.lifetime.start.p0(i64 4, ptr %30) #6
  %47 = load i32, ptr %21, align 4, !tbaa !11
  store i32 %47, ptr %30, align 4, !tbaa !11
  call void @llvm.lifetime.start.p0(i64 4, ptr %31) #6
  call void @llvm.lifetime.start.p0(i64 8, ptr %32) #6
  %48 = load ptr, ptr %25, align 8, !tbaa !10
  store ptr %48, ptr %32, align 8, !tbaa !13
  call void @llvm.lifetime.start.p0(i64 8, ptr %33) #6
  %49 = load ptr, ptr %32, align 8, !tbaa !13
  %50 = getelementptr inbounds nuw %struct._FUserData, ptr %49, i32 0, i32 0
  %51 = load ptr, ptr %50, align 8, !tbaa !28
  store ptr %51, ptr %33, align 8, !tbaa !3
  call void @llvm.lifetime.start.p0(i64 8, ptr %34) #6
  %52 = load ptr, ptr %32, align 8, !tbaa !13
  %53 = getelementptr inbounds nuw %struct._FUserData, ptr %52, i32 0, i32 1
  %54 = load ptr, ptr %53, align 8, !tbaa !29
  store ptr %54, ptr %34, align 8, !tbaa !8
  call void @llvm.lifetime.start.p0(i64 4, ptr %35) #6
  store i32 0, ptr %35, align 4, !tbaa !11
  %55 = load ptr, ptr %22, align 8, !tbaa !3
  %56 = icmp ne ptr %55, null
  br i1 %56, label %57, label %64

57:                                               ; preds = %12
  %58 = load ptr, ptr %23, align 8, !tbaa !3
  %59 = icmp ne ptr %58, null
  br i1 %59, label %60, label %64

60:                                               ; preds = %57
  %61 = load ptr, ptr %24, align 8, !tbaa !8
  %62 = icmp eq ptr %61, null
  br i1 %62, label %63, label %64

63:                                               ; preds = %60
  store i32 0, ptr %31, align 4, !tbaa !11
  br label %77

64:                                               ; preds = %60, %57, %12
  %65 = load ptr, ptr %22, align 8, !tbaa !3
  %66 = icmp eq ptr %65, null
  br i1 %66, label %67, label %74

67:                                               ; preds = %64
  %68 = load ptr, ptr %23, align 8, !tbaa !3
  %69 = icmp eq ptr %68, null
  br i1 %69, label %70, label %74

70:                                               ; preds = %67
  %71 = load ptr, ptr %24, align 8, !tbaa !8
  %72 = icmp ne ptr %71, null
  br i1 %72, label %73, label %74

73:                                               ; preds = %70
  store i32 1, ptr %31, align 4, !tbaa !11
  br label %76

74:                                               ; preds = %70, %67, %64
  %75 = call i32 (ptr, ...) @printf(ptr noundef @.str.1)
  store i1 false, ptr %13, align 1
  store i32 1, ptr %36, align 4
  br label %90

76:                                               ; preds = %73
  br label %77

77:                                               ; preds = %76, %63
  %78 = load ptr, ptr %32, align 8, !tbaa !13
  %79 = getelementptr inbounds nuw %struct._FUserData, ptr %78, i32 0, i32 6
  %80 = load ptr, ptr %79, align 8, !tbaa !22
  %81 = load ptr, ptr %15, align 8, !tbaa !8
  %82 = load ptr, ptr %19, align 8, !tbaa !8
  %83 = load ptr, ptr %22, align 8, !tbaa !3
  %84 = load ptr, ptr %23, align 8, !tbaa !3
  %85 = load ptr, ptr %24, align 8, !tbaa !8
  %86 = load ptr, ptr %33, align 8, !tbaa !3
  %87 = load ptr, ptr %34, align 8, !tbaa !8
  call void %80(ptr noundef %31, ptr noundef %26, ptr noundef %81, ptr noundef %27, ptr noundef %17, ptr noundef %28, ptr noundef %82, ptr noundef %29, ptr noundef %30, ptr noundef %83, ptr noundef %84, ptr noundef %85, ptr noundef %86, ptr noundef %87, ptr noundef %35)
  %88 = load i32, ptr %35, align 4, !tbaa !11
  %89 = icmp eq i32 %88, 0
  store i1 %89, ptr %13, align 1
  store i32 1, ptr %36, align 4
  br label %90

90:                                               ; preds = %77, %74
  call void @llvm.lifetime.end.p0(i64 4, ptr %35) #6
  call void @llvm.lifetime.end.p0(i64 8, ptr %34) #6
  call void @llvm.lifetime.end.p0(i64 8, ptr %33) #6
  call void @llvm.lifetime.end.p0(i64 8, ptr %32) #6
  call void @llvm.lifetime.end.p0(i64 4, ptr %31) #6
  call void @llvm.lifetime.end.p0(i64 4, ptr %30) #6
  call void @llvm.lifetime.end.p0(i64 4, ptr %29) #6
  call void @llvm.lifetime.end.p0(i64 4, ptr %28) #6
  call void @llvm.lifetime.end.p0(i64 4, ptr %27) #6
  call void @llvm.lifetime.end.p0(i64 4, ptr %26) #6
  %91 = load i1, ptr %13, align 1
  ret i1 %91
}