; Function Attrs: nounwind uwtable
define internal zeroext i1 @eval_h(i32 noundef %0, ptr noundef %1, i1 noundef zeroext %2, double noundef %3, i32 noundef %4, ptr noundef %5, i1 noundef zeroext %6, i32 noundef %7, ptr noundef %8, ptr noundef %9, ptr noundef %10, ptr noundef readonly captures(none) %11) #0 {
  %13 = alloca double, align 8
  %14 = alloca i32, align 4
  %15 = alloca i32, align 4
  %16 = alloca i32, align 4
  %17 = alloca i32, align 4
  %18 = alloca i32, align 4
  %19 = alloca i32, align 4
  %20 = alloca i32, align 4
  store double %3, ptr %13, align 8, !tbaa !21
  call void @llvm.lifetime.start.p0(i64 4, ptr nonnull %14) #8
  store i32 %0, ptr %14, align 4, !tbaa !3
  call void @llvm.lifetime.start.p0(i64 4, ptr nonnull %15) #8
  %21 = zext i1 %2 to i32
  store i32 %21, ptr %15, align 4, !tbaa !3
  call void @llvm.lifetime.start.p0(i64 4, ptr nonnull %16) #8
  store i32 %4, ptr %16, align 4, !tbaa !3
  call void @llvm.lifetime.start.p0(i64 4, ptr nonnull %17) #8
  %22 = zext i1 %6 to i32
  store i32 %22, ptr %17, align 4, !tbaa !3
  call void @llvm.lifetime.start.p0(i64 4, ptr nonnull %18) #8
  store i32 %7, ptr %18, align 4, !tbaa !3
  call void @llvm.lifetime.start.p0(i64 4, ptr nonnull %19) #8
  %23 = load ptr, ptr %11, align 8, !tbaa !19
  %24 = getelementptr inbounds nuw i8, ptr %11, i64 8
  %25 = load ptr, ptr %24, align 8, !tbaa !20
  call void @llvm.lifetime.start.p0(i64 4, ptr nonnull %20) #8
  store i32 0, ptr %20, align 4, !tbaa !3
  %26 = icmp ne ptr %8, null
  %27 = icmp ne ptr %9, null
  %or.cond = and i1 %26, %27
  %28 = icmp eq ptr %10, null
  %or.cond3 = and i1 %or.cond, %28
  br i1 %or.cond3, label %34, label %29

29:                                               ; preds = %12
  %30 = icmp eq ptr %8, null
  %31 = icmp eq ptr %9, null
  %or.cond5 = and i1 %30, %31
  %32 = icmp ne ptr %10, null
  %or.cond7 = and i1 %or.cond5, %32
  br i1 %or.cond7, label %34, label %33

33:                                               ; preds = %29
  %puts = tail call i32 @puts(ptr nonnull dereferenceable(1) @str.1)
  br label %39

34:                                               ; preds = %29, %12
  %storemerge = phi i32 [ 0, %12 ], [ 1, %29 ]
  store i32 %storemerge, ptr %19, align 4, !tbaa !3
  %35 = getelementptr inbounds nuw i8, ptr %11, i64 48
  %36 = load ptr, ptr %35, align 8, !tbaa !17
  call void %36(ptr noundef nonnull %19, ptr noundef nonnull %14, ptr noundef %1, ptr noundef nonnull %15, ptr noundef nonnull %13, ptr noundef nonnull %16, ptr noundef %5, ptr noundef nonnull %17, ptr noundef nonnull %18, ptr noundef %8, ptr noundef %9, ptr noundef %10, ptr noundef %23, ptr noundef %25, ptr noundef nonnull %20) #8
  %37 = load i32, ptr %20, align 4, !tbaa !3
  %38 = icmp eq i32 %37, 0
  br label %39

39:                                               ; preds = %34, %33
  %.0 = phi i1 [ %38, %34 ], [ false, %33 ]
  call void @llvm.lifetime.end.p0(i64 4, ptr nonnull %20) #8
  call void @llvm.lifetime.end.p0(i64 4, ptr nonnull %19) #8
  call void @llvm.lifetime.end.p0(i64 4, ptr nonnull %18) #8
  call void @llvm.lifetime.end.p0(i64 4, ptr nonnull %17) #8
  call void @llvm.lifetime.end.p0(i64 4, ptr nonnull %16) #8
  call void @llvm.lifetime.end.p0(i64 4, ptr nonnull %15) #8
  call void @llvm.lifetime.end.p0(i64 4, ptr nonnull %14) #8
  ret i1 %.0
}